; Function Attrs: mustprogress nounwind uwtable
define dso_local noundef zeroext i1 @_ZNK4llvm18OptimizationRemark9isEnabledEv(ptr noundef nonnull readonly align 8 captures(none) dereferenceable(432) %0) unnamed_addr #1 align 2 {
  %2 = getelementptr inbounds nuw i8, ptr %0, i64 16
  %3 = load ptr, ptr %2, align 8
  %4 = tail call noundef nonnull align 8 dereferenceable(8) ptr @_ZNK4llvm8Function10getContextEv(ptr noundef nonnull align 8 dereferenceable(136) %3) #16
  %5 = tail call noundef ptr @_ZNK4llvm11LLVMContext17getDiagHandlerPtrEv(ptr noundef nonnull align 8 dereferenceable(8) %4) #16
  %6 = getelementptr inbounds nuw i8, ptr %0, i64 40
  %7 = load ptr, ptr %6, align 8
  %.not.i.i = icmp eq ptr %7, null
  br i1 %.not.i.i, label %_ZNK4llvm30DiagnosticInfoOptimizationBase11getPassNameEv.exit, label %8

8:                                                ; preds = %1
  %9 = tail call noundef i64 @strlen(ptr noundef nonnull dereferenceable(1) %7) #16
  br label %_ZNK4llvm30DiagnosticInfoOptimizationBase11getPassNameEv.exit

_ZNK4llvm30DiagnosticInfoOptimizationBase11getPassNameEv.exit: ; preds = %1, %8
  %10 = phi i64 [ %9, %8 ], [ 0, %1 ]
  %11 = load ptr, ptr %5, align 8
  %12 = getelementptr inbounds nuw i8, ptr %11, i64 40
  %13 = load ptr, ptr %12, align 8
  %14 = tail call noundef zeroext i1 %13(ptr noundef nonnull align 8 dereferenceable(32) %5, ptr %7, i64 %10) #16
  ret i1 %14
}